; Function Attrs: nounwind uwtable
define dso_local i64 @ordered_set_transition(ptr noundef %0) local_unnamed_addr #0 {
  %2 = getelementptr inbounds nuw i8, ptr %0, i64 40
  %3 = load i8, ptr %2, align 8, !range !4, !noundef !5
  %4 = trunc nuw i8 %3 to i1
  br i1 %4, label %5, label %7

5:                                                ; preds = %1
  %6 = tail call fastcc ptr @ordered_set_startup(ptr noundef nonnull %0, i1 noundef zeroext false)
  br label %11

7:                                                ; preds = %1
  %8 = getelementptr inbounds nuw i8, ptr %0, i64 32
  %9 = load i64, ptr %8, align 8
  %10 = inttoptr i64 %9 to ptr
  br label %11

11:                                               ; preds = %7, %5
  %.0 = phi ptr [ %6, %5 ], [ %10, %7 ]
  %12 = getelementptr inbounds nuw i8, ptr %0, i64 56
  %13 = load i8, ptr %12, align 8, !range !4, !noundef !5
  %14 = trunc nuw i8 %13 to i1
  br i1 %14, label %23, label %15

15:                                               ; preds = %11
  %16 = getelementptr inbounds nuw i8, ptr %0, i64 48
  %17 = getelementptr inbounds nuw i8, ptr %.0, i64 16
  %18 = load ptr, ptr %17, align 8
  %19 = load i64, ptr %16, align 8
  tail call void @tuplesort_putdatum(ptr noundef %18, i64 noundef %19, i1 noundef zeroext false) #10
  %20 = getelementptr inbounds nuw i8, ptr %.0, i64 24
  %21 = load i64, ptr %20, align 8
  %22 = add i64 %21, 1
  store i64 %22, ptr %20, align 8
  br label %23

23:                                               ; preds = %15, %11
  %24 = ptrtoint ptr %.0 to i64
  ret i64 %24
}